; Function Attrs: mustprogress nofree norecurse nosync nounwind willreturn memory(argmem: readwrite) uwtable
define internal void @HD4_C(ptr noundef captures(none) initializes((0, 4), (32, 36), (64, 68), (96, 100)) %0) #4 {
  %2 = getelementptr inbounds i8, ptr %0, i64 -1
  %3 = load i8, ptr %2, align 1, !tbaa !14
  %4 = zext i8 %3 to i32
  %5 = getelementptr inbounds nuw i8, ptr %0, i64 31
  %6 = load i8, ptr %5, align 1, !tbaa !14
  %7 = zext i8 %6 to i32
  %8 = getelementptr inbounds nuw i8, ptr %0, i64 63
  %9 = load i8, ptr %8, align 1, !tbaa !14
  %10 = zext i8 %9 to i32
  %11 = getelementptr inbounds nuw i8, ptr %0, i64 95
  %12 = load i8, ptr %11, align 1, !tbaa !14
  %13 = zext i8 %12 to i32
  %14 = getelementptr inbounds i8, ptr %0, i64 -33
  %15 = load i8, ptr %14, align 1, !tbaa !14
  %16 = zext i8 %15 to i32
  %17 = getelementptr inbounds i8, ptr %0, i64 -32
  %18 = load i8, ptr %17, align 1, !tbaa !14
  %19 = zext i8 %18 to i32
  %20 = getelementptr inbounds i8, ptr %0, i64 -31
  %21 = load i8, ptr %20, align 1, !tbaa !14
  %22 = zext i8 %21 to i32
  %23 = getelementptr inbounds i8, ptr %0, i64 -30
  %24 = load i8, ptr %23, align 1, !tbaa !14
  %25 = zext i8 %24 to i32
  %26 = add nuw nsw i32 %4, 1
  %27 = add nuw nsw i32 %26, %16
  %28 = lshr i32 %27, 1
  %29 = trunc nuw i32 %28 to i8
  %30 = getelementptr inbounds nuw i8, ptr %0, i64 34
  store i8 %29, ptr %30, align 1, !tbaa !14
  store i8 %29, ptr %0, align 1, !tbaa !14
  %31 = add nuw nsw i32 %26, %7
  %32 = lshr i32 %31, 1
  %33 = trunc nuw i32 %32 to i8
  %34 = getelementptr inbounds nuw i8, ptr %0, i64 66
  store i8 %33, ptr %34, align 1, !tbaa !14
  %35 = getelementptr inbounds nuw i8, ptr %0, i64 32
  store i8 %33, ptr %35, align 1, !tbaa !14
  %36 = add nuw nsw i32 %7, 1
  %37 = add nuw nsw i32 %36, %10
  %38 = lshr i32 %37, 1
  %39 = trunc nuw i32 %38 to i8
  %40 = getelementptr inbounds nuw i8, ptr %0, i64 98
  store i8 %39, ptr %40, align 1, !tbaa !14
  %41 = getelementptr inbounds nuw i8, ptr %0, i64 64
  store i8 %39, ptr %41, align 1, !tbaa !14
  %42 = add nuw nsw i32 %10, 1
  %43 = add nuw nsw i32 %42, %13
  %44 = lshr i32 %43, 1
  %45 = trunc nuw i32 %44 to i8
  %46 = getelementptr inbounds nuw i8, ptr %0, i64 96
  store i8 %45, ptr %46, align 1, !tbaa !14
  %47 = shl nuw nsw i32 %22, 1
  %48 = add nuw nsw i32 %19, 2
  %49 = add nuw nsw i32 %48, %47
  %50 = add nuw nsw i32 %49, %25
  %51 = lshr i32 %50, 2
  %52 = trunc nuw i32 %51 to i8
  %53 = getelementptr inbounds nuw i8, ptr %0, i64 3
  store i8 %52, ptr %53, align 1, !tbaa !14
  %54 = shl nuw nsw i32 %19, 1
  %55 = add nuw nsw i32 %16, 2
  %56 = add nuw nsw i32 %55, %54
  %57 = add nuw nsw i32 %56, %22
  %58 = lshr i32 %57, 2
  %59 = trunc nuw i32 %58 to i8
  %60 = getelementptr inbounds nuw i8, ptr %0, i64 2
  store i8 %59, ptr %60, align 1, !tbaa !14
  %61 = shl nuw nsw i32 %16, 1
  %62 = add nuw nsw i32 %4, 2
  %63 = add nuw nsw i32 %62, %61
  %64 = add nuw nsw i32 %63, %19
  %65 = lshr i32 %64, 2
  %66 = trunc nuw i32 %65 to i8
  %67 = getelementptr inbounds nuw i8, ptr %0, i64 35
  store i8 %66, ptr %67, align 1, !tbaa !14
  %68 = getelementptr inbounds nuw i8, ptr %0, i64 1
  store i8 %66, ptr %68, align 1, !tbaa !14
  %69 = shl nuw nsw i32 %4, 1
  %70 = add nuw nsw i32 %7, 2
  %71 = add nuw nsw i32 %70, %69
  %72 = add nuw nsw i32 %71, %16
  %73 = lshr i32 %72, 2
  %74 = trunc nuw i32 %73 to i8
  %75 = getelementptr inbounds nuw i8, ptr %0, i64 67
  store i8 %74, ptr %75, align 1, !tbaa !14
  %76 = getelementptr inbounds nuw i8, ptr %0, i64 33
  store i8 %74, ptr %76, align 1, !tbaa !14
  %77 = shl nuw nsw i32 %7, 1
  %78 = add nuw nsw i32 %62, %10
  %79 = add nuw nsw i32 %78, %77
  %80 = lshr i32 %79, 2
  %81 = trunc nuw i32 %80 to i8
  %82 = getelementptr inbounds nuw i8, ptr %0, i64 99
  store i8 %81, ptr %82, align 1, !tbaa !14
  %83 = getelementptr inbounds nuw i8, ptr %0, i64 65
  store i8 %81, ptr %83, align 1, !tbaa !14
  %84 = shl nuw nsw i32 %10, 1
  %85 = add nuw nsw i32 %70, %13
  %86 = add nuw nsw i32 %85, %84
  %87 = lshr i32 %86, 2
  %88 = trunc nuw i32 %87 to i8
  %89 = getelementptr inbounds nuw i8, ptr %0, i64 97
  store i8 %88, ptr %89, align 1, !tbaa !14
  ret void
}